; Function Attrs: mustprogress nounwind uwtable
define hidden noundef ptr @_ZN7nmethod36oops_do_try_add_to_list_as_weak_doneEv(ptr noundef nonnull align 8 dereferenceable(214) %0) local_unnamed_addr #0 align 2 {
  %2 = alloca %class.LogStream, align 8
  %3 = tail call noundef ptr asm sideeffect "xchgq ($2),$0", "=r,0,r,~{memory},~{dirflag},~{fpsr},~{flags}"(ptr nonnull %0, ptr nonnull @_ZN7nmethod22_oops_do_mark_nmethodsE) #23, !srcloc !83
  %4 = icmp eq ptr %3, null
  %spec.store.select = select i1 %4, ptr %0, ptr %3
  %5 = getelementptr inbounds i8, ptr %0, i64 120
  %6 = ptrtoint ptr %spec.store.select to i64
  %7 = and i64 %6, -4
  %8 = or disjoint i64 %7, 1
  %9 = inttoptr i64 %8 to ptr
  %10 = tail call noundef ptr asm sideeffect "lock cmpxchgq $1,($3)", "={ax},r,{ax},r,~{cc},~{memory},~{dirflag},~{fpsr},~{flags}"(ptr nonnull %9, ptr nonnull %0, ptr nonnull %5) #23, !srcloc !15
  %11 = icmp eq ptr %10, %0
  br i1 %11, label %12, label %27

12:                                               ; preds = %1
  call void @llvm.lifetime.start.p0(i64 160, ptr nonnull %2)
  %13 = load volatile ptr, ptr getelementptr inbounds (i8, ptr @_ZN16LogTagSetMappingILN6LogTag4typeE49ELS1_94ELS1_0ELS1_0ELS1_0ELS1_0EE7_tagsetE, i64 48), align 8
  %.not.i = icmp eq ptr %13, null
  br i1 %.not.i, label %_ZN7nmethod18oops_do_log_changeEPKc.exit, label %14

14:                                               ; preds = %12
  call void @_ZN12outputStreamC2Eb(ptr noundef nonnull align 8 dereferenceable(56) %2, i1 noundef zeroext false) #23
  store ptr getelementptr inbounds inrange(-16, 40) (i8, ptr @_ZTV17LogStreamImplBase, i64 16), ptr %2, align 8
  %15 = getelementptr inbounds i8, ptr %2, i64 56
  call void @_ZN17LogStreamImplBase10LineBufferC1Ev(ptr noundef nonnull align 8 dereferenceable(88) %15) #23
  %16 = getelementptr inbounds i8, ptr %2, i64 144
  store i32 1, ptr %16, align 8
  %.sroa.21.0..sroa_idx.i.i.i = getelementptr inbounds i8, ptr %2, i64 152
  store ptr @_ZN16LogTagSetMappingILN6LogTag4typeE49ELS1_94ELS1_0ELS1_0ELS1_0ELS1_0EE7_tagsetE, ptr %.sroa.21.0..sroa_idx.i.i.i, align 8
  store ptr getelementptr inbounds inrange(-16, 40) (i8, ptr @_ZTV9LogStream, i64 16), ptr %2, align 8
  %17 = getelementptr inbounds i8, ptr %0, i64 72
  %18 = load ptr, ptr %17, align 8
  %19 = getelementptr inbounds i8, ptr %0, i64 204
  %20 = load i32, ptr %19, align 4
  %21 = getelementptr inbounds i8, ptr %0, i64 208
  %22 = load i8, ptr %21, align 8
  %23 = sext i8 %22 to i32
  %24 = getelementptr inbounds i8, ptr %0, i64 148
  %25 = load i32, ptr %24, align 4
  %26 = icmp ne i32 %25, -1
  call void @_ZN11CompileTask10print_implEP12outputStreamP6MethodiibibPKcbbll(ptr noundef nonnull %2, ptr noundef %18, i32 noundef %20, i32 noundef %23, i1 noundef zeroext %26, i32 noundef %25, i1 noundef zeroext false, ptr noundef nonnull @.str.53, i1 noundef zeroext true, i1 noundef zeroext true, i64 noundef 0, i64 noundef 0) #23
  call void @_ZN13LogStreamImplI15LogTargetHandleED2Ev(ptr noundef nonnull align 8 dereferenceable(160) %2) #23
  br label %_ZN7nmethod18oops_do_log_changeEPKc.exit

_ZN7nmethod18oops_do_log_changeEPKc.exit:         ; preds = %12, %14
  call void @llvm.lifetime.end.p0(i64 160, ptr nonnull %2)
  br label %27

27:                                               ; preds = %1, %_ZN7nmethod18oops_do_log_changeEPKc.exit
  %.0 = phi ptr [ null, %_ZN7nmethod18oops_do_log_changeEPKc.exit ], [ %spec.store.select, %1 ]
  ret ptr %.0
}